target datalayout = "e-m:e-p270:32:32-p271:32:32-p272:64:64-i64:64-i128:128-f80:128-n8:16:32:64-S128"
target triple = "x86_64-pc-linux-gnu"

%"class.std::vector.75" = type { %"struct.std::_Vector_base.76" }
%"struct.std::_Vector_base.76" = type { %"struct.std::_Vector_base<unsigned int, std::allocator<unsigned int>>::_Vector_impl" }
%"struct.std::_Vector_base<unsigned int, std::allocator<unsigned int>>::_Vector_impl" = type { %"struct.std::_Vector_base<unsigned int, std::allocator<unsigned int>>::_Vector_impl_data" }
%"struct.std::_Vector_base<unsigned int, std::allocator<unsigned int>>::_Vector_impl_data" = type { ptr, ptr, ptr }
%"class.std::optional" = type { %"struct.std::_Optional_base" }
%"struct.std::_Optional_base" = type { %"struct.std::_Optional_payload" }
%"struct.std::_Optional_payload" = type { %"struct.std::_Optional_payload_base.base", [3 x i8] }
%"struct.std::_Optional_payload_base.base" = type <{ %"union.std::_Optional_payload_base<unsigned int>::_Storage", i8 }>
%"union.std::_Optional_payload_base<unsigned int>::_Storage" = type { i32 }
%"class.WasmEdge::AST::SubType" = type <{ i8, [7 x i8], %"class.std::vector.75", %"class.WasmEdge::AST::CompositeType", %"class.std::optional.146", %"class.std::optional", [4 x i8] }>
%"class.WasmEdge::AST::CompositeType" = type { i8, [7 x i8], %"class.std::variant" }
%"class.std::variant" = type { %"struct.std::__detail::__variant::_Variant_base.base", [7 x i8] }
%"struct.std::__detail::__variant::_Variant_base.base" = type { %"struct.std::__detail::__variant::_Move_assign_base.base" }
%"struct.std::__detail::__variant::_Move_assign_base.base" = type { %"struct.std::__detail::__variant::_Copy_assign_base.base" }
%"struct.std::__detail::__variant::_Copy_assign_base.base" = type { %"struct.std::__detail::__variant::_Move_ctor_base.base" }
%"struct.std::__detail::__variant::_Move_ctor_base.base" = type { %"struct.std::__detail::__variant::_Copy_ctor_base.base" }
%"struct.std::__detail::__variant::_Copy_ctor_base.base" = type { %"struct.std::__detail::__variant::_Variant_storage.base" }
%"struct.std::__detail::__variant::_Variant_storage.base" = type { %"union.std::__detail::__variant::_Variadic_union", i8 }
%"union.std::__detail::__variant::_Variadic_union" = type { %"union.std::__detail::__variant::_Variadic_union.139" }
%"union.std::__detail::__variant::_Variadic_union.139" = type { %"struct.std::__detail::__variant::_Uninitialized.140" }
%"struct.std::__detail::__variant::_Uninitialized.140" = type { %"struct.__gnu_cxx::__aligned_membuf.141" }
%"struct.__gnu_cxx::__aligned_membuf.141" = type { [72 x i8] }
%"class.std::optional.146" = type { %"struct.std::_Optional_base.147" }
%"struct.std::_Optional_base.147" = type { %"struct.std::_Optional_payload.149" }
%"struct.std::_Optional_payload.149" = type { %"struct.std::_Optional_payload_base.base.151", [3 x i8] }
%"struct.std::_Optional_payload_base.base.151" = type <{ %"union.std::_Optional_payload_base<WasmEdge::AST::SubType::RecInfo>::_Storage", i8 }>
%"union.std::_Optional_payload_base<WasmEdge::AST::SubType::RecInfo>::_Storage" = type { %"struct.WasmEdge::AST::SubType::RecInfo" }
%"struct.WasmEdge::AST::SubType::RecInfo" = type { i32, i32 }
%"class.std::unique_ptr.588" = type { %"struct.std::__uniq_ptr_data.589" }
%"struct.std::__uniq_ptr_data.589" = type { %"class.std::__uniq_ptr_impl.590" }
%"class.std::__uniq_ptr_impl.590" = type { %"class.std::tuple.591" }
%"class.std::tuple.591" = type { %"struct.std::_Tuple_impl.592" }
%"struct.std::_Tuple_impl.592" = type { %"struct.std::_Head_base.595" }
%"struct.std::_Head_base.595" = type { ptr }
%"class.WasmEdge::Runtime::Instance::FunctionInstance" = type { %"class.WasmEdge::Runtime::Instance::CompositeBase.base", ptr, %"class.std::variant.562" }
%"class.WasmEdge::Runtime::Instance::CompositeBase.base" = type <{ ptr, ptr, i32 }>
%"class.std::variant.562" = type { %"struct.std::__detail::__variant::_Variant_base.base.583", [7 x i8] }
%"struct.std::__detail::__variant::_Variant_base.base.583" = type { %"struct.std::__detail::__variant::_Move_assign_base.base.582" }
%"struct.std::__detail::__variant::_Move_assign_base.base.582" = type { %"struct.std::__detail::__variant::_Copy_assign_base.base.581" }
%"struct.std::__detail::__variant::_Copy_assign_base.base.581" = type { %"struct.std::__detail::__variant::_Move_ctor_base.base.580" }
%"struct.std::__detail::__variant::_Move_ctor_base.base.580" = type { %"struct.std::__detail::__variant::_Copy_ctor_base.base.579" }
%"struct.std::__detail::__variant::_Copy_ctor_base.base.579" = type { %"struct.std::__detail::__variant::_Variant_storage.base.578" }
%"struct.std::__detail::__variant::_Variant_storage.base.578" = type { %"union.std::__detail::__variant::_Variadic_union.569", i8 }
%"union.std::__detail::__variant::_Variadic_union.569" = type { %"struct.std::__detail::__variant::_Uninitialized.570" }
%"struct.std::__detail::__variant::_Uninitialized.570" = type { %"struct.__gnu_cxx::__aligned_membuf.571" }
%"struct.__gnu_cxx::__aligned_membuf.571" = type { [56 x i8] }
%"class.(anonymous namespace)::CAPIHostFunc" = type { %"class.WasmEdge::Runtime::HostFunctionBase", ptr, ptr, ptr, ptr }
%"class.WasmEdge::Runtime::HostFunctionBase" = type { ptr, %"class.WasmEdge::AST::SubType", i64 }
%"struct.std::__detail::__variant::_Variant_storage.568" = type { %"union.std::__detail::__variant::_Variadic_union.569", i8, [7 x i8] }
%"struct.std::__detail::__variant::_Uninitialized.576" = type { %"struct.__gnu_cxx::__aligned_membuf.577" }
%"struct.__gnu_cxx::__aligned_membuf.577" = type { [8 x i8] }

; Function Attrs: mustprogress nounwind uwtable
define linkonce_odr hidden noundef ptr @_ZNK9__gnu_cxx16__aligned_membufISt10unique_ptrIN8WasmEdge7Runtime16HostFunctionBaseESt14default_deleteIS4_EEE7_M_addrEv(ptr noundef nonnull align 8 dereferenceable(8) %0) #0 comdat align 2 {
  %2 = alloca ptr, align 8
  store ptr %0, ptr %2, align 8
  %3 = load ptr, ptr %2, align 8
  %4 = getelementptr inbounds %"struct.__gnu_cxx::__aligned_membuf.577", ptr %3, i32 0, i32 0
  ret ptr %4
}

; Function Attrs: mustprogress nounwind uwtable
define linkonce_odr hidden noundef nonnull align 8 dereferenceable(8) ptr @_ZNSt10_Head_baseILm0EPN8WasmEdge7Runtime16HostFunctionBaseELb0EE7_M_headERKS4_(ptr noundef nonnull align 8 dereferenceable(8) %0) #0 comdat align 2 {
  %2 = alloca ptr, align 8
  store ptr %0, ptr %2, align 8
  %3 = load ptr, ptr %2, align 8
  %4 = getelementptr inbounds %"struct.std::_Head_base.595", ptr %3, i32 0, i32 0
  ret ptr %4
}

; Function Attrs: mustprogress nounwind uwtable
define linkonce_odr hidden noundef ptr @_ZNK9__gnu_cxx16__aligned_membufISt10unique_ptrIN8WasmEdge7Runtime16HostFunctionBaseESt14default_deleteIS4_EEE6_M_ptrEv(ptr noundef nonnull align 8 dereferenceable(8) %0) #0 comdat align 2 {
  %2 = alloca ptr, align 8
  store ptr %0, ptr %2, align 8
  %3 = load ptr, ptr %2, align 8
  %4 = call noundef ptr @_ZNK9__gnu_cxx16__aligned_membufISt10unique_ptrIN8WasmEdge7Runtime16HostFunctionBaseESt14default_deleteIS4_EEE7_M_addrEv(ptr noundef nonnull align 8 dereferenceable(8) %3) #18
  ret ptr %4
}

; Function Attrs: mustprogress nounwind uwtable
define linkonce_odr hidden noundef nonnull align 8 dereferenceable(8) ptr @_ZNSt11_Tuple_implILm0EJPN8WasmEdge7Runtime16HostFunctionBaseESt14default_deleteIS2_EEE7_M_headERKS6_(ptr noundef nonnull align 8 dereferenceable(8) %0) #0 comdat align 2 {
  %2 = alloca ptr, align 8
  store ptr %0, ptr %2, align 8
  %3 = load ptr, ptr %2, align 8
  %4 = call noundef nonnull align 8 dereferenceable(8) ptr @_ZNSt10_Head_baseILm0EPN8WasmEdge7Runtime16HostFunctionBaseELb0EE7_M_headERKS4_(ptr noundef nonnull align 8 dereferenceable(8) %3) #18
  ret ptr %4
}

; Function Attrs: mustprogress nounwind uwtable
define linkonce_odr hidden noundef nonnull align 8 dereferenceable(8) ptr @_ZNKRSt8__detail9__variant14_UninitializedISt10unique_ptrIN8WasmEdge7Runtime16HostFunctionBaseESt14default_deleteIS5_EELb0EE6_M_getEv(ptr noundef nonnull align 8 dereferenceable(8) %0) #0 comdat align 2 {
  %2 = alloca ptr, align 8
  store ptr %0, ptr %2, align 8
  %3 = load ptr, ptr %2, align 8
  %4 = getelementptr inbounds %"struct.std::__detail::__variant::_Uninitialized.576", ptr %3, i32 0, i32 0
  %5 = call noundef ptr @_ZNK9__gnu_cxx16__aligned_membufISt10unique_ptrIN8WasmEdge7Runtime16HostFunctionBaseESt14default_deleteIS4_EEE6_M_ptrEv(ptr noundef nonnull align 8 dereferenceable(8) %4) #18
  ret ptr %5
}

; Function Attrs: mustprogress nounwind uwtable
define linkonce_odr noundef nonnull align 8 dereferenceable(8) ptr @_ZSt12__get_helperILm0EPN8WasmEdge7Runtime16HostFunctionBaseEJSt14default_deleteIS2_EEERKT0_RKSt11_Tuple_implIXT_EJS6_DpT1_EE(ptr noundef nonnull align 8 dereferenceable(8) %0) #0 comdat {
  %2 = alloca ptr, align 8
  store ptr %0, ptr %2, align 8
  %3 = load ptr, ptr %2, align 8
  %4 = call noundef nonnull align 8 dereferenceable(8) ptr @_ZNSt11_Tuple_implILm0EJPN8WasmEdge7Runtime16HostFunctionBaseESt14default_deleteIS2_EEE7_M_headERKS6_(ptr noundef nonnull align 8 dereferenceable(8) %3) #18
  ret ptr %4
}

; Function Attrs: mustprogress nounwind uwtable
define linkonce_odr noundef nonnull align 8 dereferenceable(8) ptr @_ZNSt8__detail9__variant7__get_nILm2ERKNS0_15_Variadic_unionIJN8WasmEdge7Runtime8Instance16FunctionInstance12WasmFunctionENS3_6SymbolIvEESt10unique_ptrINS4_16HostFunctionBaseESt14default_deleteISB_EEEEEEEDcOT0_(ptr noundef nonnull align 8 dereferenceable(56) %0) #0 comdat {
  %2 = alloca ptr, align 8
  store ptr %0, ptr %2, align 8
  %3 = load ptr, ptr %2, align 8
  %4 = call noundef nonnull align 8 dereferenceable(8) ptr @_ZNKRSt8__detail9__variant14_UninitializedISt10unique_ptrIN8WasmEdge7Runtime16HostFunctionBaseESt14default_deleteIS5_EELb0EE6_M_getEv(ptr noundef nonnull align 8 dereferenceable(8) %3) #18
  ret ptr %4
}

; Function Attrs: mustprogress nounwind uwtable
define linkonce_odr noundef nonnull align 8 dereferenceable(8) ptr @_ZSt3getILm0EJPN8WasmEdge7Runtime16HostFunctionBaseESt14default_deleteIS2_EEERKNSt13tuple_elementIXT_ESt5tupleIJDpT0_EEE4typeERKSA_(ptr noundef nonnull align 8 dereferenceable(8) %0) #0 comdat {
  %2 = alloca ptr, align 8
  store ptr %0, ptr %2, align 8
  %3 = load ptr, ptr %2, align 8
  %4 = call noundef nonnull align 8 dereferenceable(8) ptr @_ZSt12__get_helperILm0EPN8WasmEdge7Runtime16HostFunctionBaseEJSt14default_deleteIS2_EEERKT0_RKSt11_Tuple_implIXT_EJS6_DpT1_EE(ptr noundef nonnull align 8 dereferenceable(8) %3) #18
  ret ptr %4
}

; Function Attrs: mustprogress nounwind uwtable
define linkonce_odr noundef nonnull align 8 dereferenceable(8) ptr @_ZNSt8__detail9__variant5__getILm2ERKSt7variantIJN8WasmEdge7Runtime8Instance16FunctionInstance12WasmFunctionENS3_6SymbolIvEESt10unique_ptrINS4_16HostFunctionBaseESt14default_deleteISB_EEEEEEDcOT0_(ptr noundef nonnull align 8 dereferenceable(57) %0) #0 comdat {
  %2 = alloca ptr, align 8
  store ptr %0, ptr %2, align 8
  %3 = load ptr, ptr %2, align 8
  %4 = getelementptr inbounds %"struct.std::__detail::__variant::_Variant_storage.568", ptr %3, i32 0, i32 0
  %5 = call noundef nonnull align 8 dereferenceable(8) ptr @_ZNSt8__detail9__variant7__get_nILm2ERKNS0_15_Variadic_unionIJN8WasmEdge7Runtime8Instance16FunctionInstance12WasmFunctionENS3_6SymbolIvEESt10unique_ptrINS4_16HostFunctionBaseESt14default_deleteISB_EEEEEEEDcOT0_(ptr noundef nonnull align 8 dereferenceable(56) %4) #18
  ret ptr %5
}

; Function Attrs: mustprogress nounwind uwtable
define linkonce_odr hidden noundef i64 @_ZNKSt7variantIJN8WasmEdge7Runtime8Instance16FunctionInstance12WasmFunctionENS0_6SymbolIvEESt10unique_ptrINS1_16HostFunctionBaseESt14default_deleteIS8_EEEE5indexEv(ptr noundef nonnull align 8 dereferenceable(57) %0) #0 comdat align 2 {
  %2 = alloca ptr, align 8
  store ptr %0, ptr %2, align 8
  %3 = load ptr, ptr %2, align 8
  %4 = getelementptr inbounds %"struct.std::__detail::__variant::_Variant_storage.568", ptr %3, i32 0, i32 1
  %5 = load i8, ptr %4, align 8
  %6 = sext i8 %5 to i64
  ret i64 %6
}

; Function Attrs: mustprogress nounwind uwtable
define linkonce_odr hidden noundef ptr @_ZNKSt15__uniq_ptr_implIN8WasmEdge7Runtime16HostFunctionBaseESt14default_deleteIS2_EE6_M_ptrEv(ptr noundef nonnull align 8 dereferenceable(8) %0) #0 comdat align 2 {
  %2 = alloca ptr, align 8
  store ptr %0, ptr %2, align 8
  %3 = load ptr, ptr %2, align 8
  %4 = getelementptr inbounds %"class.std::__uniq_ptr_impl.590", ptr %3, i32 0, i32 0
  %5 = call noundef nonnull align 8 dereferenceable(8) ptr @_ZSt3getILm0EJPN8WasmEdge7Runtime16HostFunctionBaseESt14default_deleteIS2_EEERKNSt13tuple_elementIXT_ESt5tupleIJDpT0_EEE4typeERKSA_(ptr noundef nonnull align 8 dereferenceable(8) %4) #18
  %6 = load ptr, ptr %5, align 8
  ret ptr %6
}

; Function Attrs: mustprogress nounwind uwtable
define linkonce_odr noundef ptr @_ZSt6get_ifILm2EJN8WasmEdge7Runtime8Instance16FunctionInstance12WasmFunctionENS0_6SymbolIvEESt10unique_ptrINS1_16HostFunctionBaseESt14default_deleteIS8_EEEENSt11add_pointerIKNSt19variant_alternativeIXT_ESt7variantIJDpT0_EEE4typeEE4typeEPKSH_(ptr noundef %0) #0 comdat {
  %2 = alloca ptr, align 8
  %3 = alloca ptr, align 8
  store ptr %0, ptr %3, align 8
  %4 = load ptr, ptr %3, align 8
  %5 = icmp ne ptr %4, null
  br i1 %5, label %6, label %13

6:                                                ; preds = %1
  %7 = load ptr, ptr %3, align 8
  %8 = call noundef i64 @_ZNKSt7variantIJN8WasmEdge7Runtime8Instance16FunctionInstance12WasmFunctionENS0_6SymbolIvEESt10unique_ptrINS1_16HostFunctionBaseESt14default_deleteIS8_EEEE5indexEv(ptr noundef nonnull align 8 dereferenceable(57) %7) #18
  %9 = icmp eq i64 %8, 2
  br i1 %9, label %10, label %13

10:                                               ; preds = %6
  %11 = load ptr, ptr %3, align 8
  %12 = call noundef nonnull align 8 dereferenceable(8) ptr @_ZNSt8__detail9__variant5__getILm2ERKSt7variantIJN8WasmEdge7Runtime8Instance16FunctionInstance12WasmFunctionENS3_6SymbolIvEESt10unique_ptrINS4_16HostFunctionBaseESt14default_deleteISB_EEEEEEDcOT0_(ptr noundef nonnull align 8 dereferenceable(57) %11) #18
  store ptr %12, ptr %2, align 8
  br label %14

13:                                               ; preds = %6, %1
  store ptr null, ptr %2, align 8
  br label %14

14:                                               ; preds = %13, %10
  %15 = load ptr, ptr %2, align 8
  ret ptr %15
}

; Function Attrs: mustprogress nounwind uwtable
define linkonce_odr hidden noundef ptr @_ZNKSt10unique_ptrIN8WasmEdge7Runtime16HostFunctionBaseESt14default_deleteIS2_EE3getEv(ptr noundef nonnull align 8 dereferenceable(8) %0) #0 comdat align 2 {
  %2 = alloca ptr, align 8
  store ptr %0, ptr %2, align 8
  %3 = load ptr, ptr %2, align 8
  %4 = getelementptr inbounds %"class.std::unique_ptr.588", ptr %3, i32 0, i32 0
  %5 = call noundef ptr @_ZNKSt15__uniq_ptr_implIN8WasmEdge7Runtime16HostFunctionBaseESt14default_deleteIS2_EE6_M_ptrEv(ptr noundef nonnull align 8 dereferenceable(8) %4) #18
  ret ptr %5
}

; Function Attrs: mustprogress nounwind uwtable
define linkonce_odr noundef ptr @_ZSt6get_ifISt10unique_ptrIN8WasmEdge7Runtime16HostFunctionBaseESt14default_deleteIS3_EEJNS2_8Instance16FunctionInstance12WasmFunctionENS1_6SymbolIvEES6_EENSt11add_pointerIKT_E4typeEPKSt7variantIJDpT0_EE(ptr noundef %0) #0 comdat {
  %2 = alloca ptr, align 8
  %3 = alloca i64, align 8
  store ptr %0, ptr %2, align 8
  store i64 2, ptr %3, align 8
  %4 = load ptr, ptr %2, align 8
  %5 = call noundef ptr @_ZSt6get_ifILm2EJN8WasmEdge7Runtime8Instance16FunctionInstance12WasmFunctionENS0_6SymbolIvEESt10unique_ptrINS1_16HostFunctionBaseESt14default_deleteIS8_EEEENSt11add_pointerIKNSt19variant_alternativeIXT_ESt7variantIJDpT0_EEE4typeEE4typeEPKSH_(ptr noundef %4) #18
  ret ptr %5
}

; Function Attrs: mustprogress nounwind uwtable
define internal noundef ptr @_ZNK12_GLOBAL__N_112CAPIHostFunc7getDataEv(ptr noundef nonnull align 8 dereferenceable(192) %0) #0 align 2 {
  %2 = alloca ptr, align 8
  store ptr %0, ptr %2, align 8
  %3 = load ptr, ptr %2, align 8
  %4 = getelementptr inbounds %"class.(anonymous namespace)::CAPIHostFunc", ptr %3, i32 0, i32 4
  %5 = load ptr, ptr %4, align 8
  ret ptr %5
}

; Function Attrs: mustprogress nounwind uwtable
define linkonce_odr hidden noundef nonnull align 8 dereferenceable(160) ptr @_ZNK8WasmEdge7Runtime8Instance16FunctionInstance11getHostFuncEv(ptr noundef nonnull align 8 dereferenceable(96) %0) #0 comdat align 2 {
  %2 = alloca ptr, align 8
  store ptr %0, ptr %2, align 8
  %3 = load ptr, ptr %2, align 8
  %4 = getelementptr inbounds %"class.WasmEdge::Runtime::Instance::FunctionInstance", ptr %3, i32 0, i32 2
  %5 = call noundef ptr @_ZSt6get_ifISt10unique_ptrIN8WasmEdge7Runtime16HostFunctionBaseESt14default_deleteIS3_EEJNS2_8Instance16FunctionInstance12WasmFunctionENS1_6SymbolIvEES6_EENSt11add_pointerIKT_E4typeEPKSt7variantIJDpT0_EE(ptr noundef %4) #18
  %6 = call noundef ptr @_ZNKSt10unique_ptrIN8WasmEdge7Runtime16HostFunctionBaseESt14default_deleteIS2_EE3getEv(ptr noundef nonnull align 8 dereferenceable(8) %5) #18
  ret ptr %6
}

; Function Attrs: mustprogress nounwind uwtable
define internal noundef ptr @_ZN12_GLOBAL__N_111fromFuncCxtEPK32WasmEdge_FunctionInstanceContext(ptr noundef %0) #0 {
  %2 = alloca ptr, align 8
  store ptr %0, ptr %2, align 8
  %3 = load ptr, ptr %2, align 8
  ret ptr %3
}

; Function Attrs: mustprogress nounwind uwtable
define ptr @WasmEdge_FunctionInstanceGetData(ptr noundef %0) #0 {
  %2 = alloca ptr, align 8
  %3 = alloca ptr, align 8
  store ptr %0, ptr %3, align 8
  %4 = load ptr, ptr %3, align 8
  %5 = icmp ne ptr %4, null
  br i1 %5, label %6, label %11

6:                                                ; preds = %1
  %7 = load ptr, ptr %3, align 8
  %8 = call noundef ptr @_ZN12_GLOBAL__N_111fromFuncCxtEPK32WasmEdge_FunctionInstanceContext(ptr noundef %7) #18
  %9 = call noundef nonnull align 8 dereferenceable(160) ptr @_ZNK8WasmEdge7Runtime8Instance16FunctionInstance11getHostFuncEv(ptr noundef nonnull align 8 dereferenceable(96) %8) #18
  %10 = call noundef ptr @_ZNK12_GLOBAL__N_112CAPIHostFunc7getDataEv(ptr noundef nonnull align 8 dereferenceable(192) %9) #18
  store ptr %10, ptr %2, align 8
  br label %12

11:                                               ; preds = %1
  store ptr null, ptr %2, align 8
  br label %12

12:                                               ; preds = %11, %6
  %13 = load ptr, ptr %2, align 8
  ret ptr %13
}