; Function Attrs: mustprogress nofree norecurse nosync nounwind willreturn memory(read, inaccessiblemem: none) uwtable
define ptr @WasmEdge_FunctionInstanceGetData(ptr noundef readonly %0) local_unnamed_addr #16 {
  %.not = icmp eq ptr %0, null
  br i1 %.not, label %6, label %2

2:                                                ; preds = %1
  %3 = getelementptr inbounds i8, ptr %0, i64 32
  %4 = load ptr, ptr %3, align 8
  %5 = getelementptr i8, ptr %4, i64 184
  %.val = load ptr, ptr %5, align 8
  br label %6

6:                                                ; preds = %1, %2
  %.0 = phi ptr [ %.val, %2 ], [ null, %1 ]
  ret ptr %.0
}